; Function Attrs: mustprogress nounwind uwtable
define dso_local { ptr, i32 } @_ZNSt3__18to_charsEPcS0_eNS_12chars_formatE(ptr noundef %0, ptr noundef %1, x86_fp80 noundef %2, i32 noundef %3) local_unnamed_addr #4 personality ptr @__gxx_personality_v0 {
  %5 = fptrunc x86_fp80 %2 to double
  %6 = bitcast double %5 to i64
  %7 = icmp slt i64 %6, 0
  br i1 %7, label %8, label %17

8:                                                ; preds = %4
  %9 = icmp eq ptr %0, %1
  br i1 %9, label %10, label %13

10:                                               ; preds = %8
  %11 = insertvalue { ptr, i32 } poison, ptr %1, 0
  %12 = insertvalue { ptr, i32 } %11, i32 75, 1
  br label %_ZNSt3__118_Floating_to_charsB8ne210000ILNS_27_Floating_to_chars_overloadE1EdEENS_15to_chars_resultEPcS3_T0_NS_12chars_formatEi.exit

13:                                               ; preds = %8
  %14 = getelementptr inbounds nuw i8, ptr %0, i64 1
  store i8 45, ptr %0, align 1, !tbaa !4
  %15 = tail call double @llvm.fabs.f64(double %5)
  %16 = bitcast double %15 to i64
  br label %17

17:                                               ; preds = %13, %4
  %.035.i = phi double [ %15, %13 ], [ %5, %4 ]
  %.034.i = phi i64 [ %16, %13 ], [ %6, %4 ]
  %.025.i = phi ptr [ %14, %13 ], [ %0, %4 ]
  %18 = and i64 %.034.i, 9218868437227405312
  %19 = icmp eq i64 %18, 9218868437227405312
  br i1 %19, label %20, label %37

20:                                               ; preds = %17
  %21 = and i64 %.034.i, 4503599627370495
  %22 = icmp eq i64 %21, 0
  br i1 %22, label %27, label %23

23:                                               ; preds = %20
  %24 = icmp eq i64 %21, 2251799813685248
  %or.cond.i = and i1 %7, %24
  br i1 %or.cond.i, label %27, label %25

25:                                               ; preds = %23
  %26 = and i64 %.034.i, 2251799813685248
  %.not.i = icmp eq i64 %26, 0
  %.str.3..str.2.i = select i1 %.not.i, ptr @.str.3, ptr @.str.2
  %..i = select i1 %.not.i, i64 9, i64 3
  br label %27

27:                                               ; preds = %25, %23, %20
  %.024.i = phi ptr [ @.str, %20 ], [ @.str.1, %23 ], [ %.str.3..str.2.i, %25 ]
  %.0.i = phi i64 [ 3, %20 ], [ 8, %23 ], [ %..i, %25 ]
  %28 = ptrtoint ptr %1 to i64
  %29 = ptrtoint ptr %.025.i to i64
  %30 = sub i64 %28, %29
  %31 = icmp slt i64 %30, %.0.i
  br i1 %31, label %34, label %32

32:                                               ; preds = %27
  tail call void @llvm.memcpy.p0.p0.i64(ptr noundef nonnull align 1 dereferenceable(1) %.025.i, ptr noundef nonnull align 1 dereferenceable(1) %.024.i, i64 %.0.i, i1 false)
  %33 = getelementptr inbounds nuw i8, ptr %.025.i, i64 %.0.i
  br label %34

34:                                               ; preds = %32, %27
  %.sroa.0.1.i = phi ptr [ %33, %32 ], [ %1, %27 ]
  %.sroa.6.1.i = phi i32 [ 0, %32 ], [ 75, %27 ]
  %35 = insertvalue { ptr, i32 } poison, ptr %.sroa.0.1.i, 0
  %36 = insertvalue { ptr, i32 } %35, i32 %.sroa.6.1.i, 1
  br label %_ZNSt3__118_Floating_to_charsB8ne210000ILNS_27_Floating_to_chars_overloadE1EdEENS_15to_chars_resultEPcS3_T0_NS_12chars_formatEi.exit

37:                                               ; preds = %17
  %38 = icmp eq i32 %3, 4
  br i1 %38, label %39, label %41

39:                                               ; preds = %37
  %40 = tail call { ptr, i32 } @_ZNSt3__131_Floating_to_chars_hex_shortestB8ne210000IdEENS_15to_chars_resultEPcS2_T_(ptr noundef %.025.i, ptr noundef %1, double noundef %.035.i) #19
  br label %_ZNSt3__118_Floating_to_charsB8ne210000ILNS_27_Floating_to_chars_overloadE1EdEENS_15to_chars_resultEPcS3_T0_NS_12chars_formatEi.exit

41:                                               ; preds = %37
  %42 = invoke { ptr, i32 } @_ZNSt3__116__d2s_buffered_nB8ne210000EPcS0_dNS_12chars_formatE(ptr noundef %.025.i, ptr noundef %1, double noundef %.035.i, i32 noundef %3)
          to label %_ZNSt3__118_Floating_to_charsB8ne210000ILNS_27_Floating_to_chars_overloadE1EdEENS_15to_chars_resultEPcS3_T0_NS_12chars_formatEi.exit unwind label %43

43:                                               ; preds = %41
  %44 = landingpad { ptr, i32 }
          catch ptr null
  %45 = extractvalue { ptr, i32 } %44, 0
  tail call void @__clang_call_terminate(ptr %45) #20
  unreachable

_ZNSt3__118_Floating_to_charsB8ne210000ILNS_27_Floating_to_chars_overloadE1EdEENS_15to_chars_resultEPcS3_T0_NS_12chars_formatEi.exit: ; preds = %10, %34, %39, %41
  %.fca.1.insert.merged.i = phi { ptr, i32 } [ %12, %10 ], [ %36, %34 ], [ %40, %39 ], [ %42, %41 ]
  ret { ptr, i32 } %.fca.1.insert.merged.i
}